; ModuleID = 'for.113dc9e2-cgu.0'
source_filename = "for.113dc9e2-cgu.0"
target datalayout = "e-m:e-p270:32:32-p271:32:32-p272:64:64-i64:64-f80:128-n8:16:32:64-S128"
target triple = "x86_64-unknown-linux-gnu"

%"std::option::Option<usize>::Some" = type { [1 x i64], i64, [0 x i64] }
%"std::panic::Location" = type { [0 x i64], { [0 x i8]*, i64 }, [0 x i32], i32, [0 x i32], i32, [0 x i32] }
%"unwind::libunwind::_Unwind_Exception" = type { [0 x i64], i64, [0 x i64], void (i32, %"unwind::libunwind::_Unwind_Exception"*)*, [0 x i64], [6 x i64], [0 x i64] }
%"unwind::libunwind::_Unwind_Context" = type { [0 x i8] }

@vtable.0 = private unnamed_addr constant <{ i8*, [16 x i8], i8*, i8*, i8*, [0 x i8] }> <{ i8* bitcast (void (i64**)* @"_ZN4core3ptr85drop_in_place$LT$std..rt..lang_start$LT$$LP$$RP$$GT$..$u7b$$u7b$closure$u7d$$u7d$$GT$17hf8c1492530bb5af0E" to i8*), [16 x i8] c"\08\00\00\00\00\00\00\00\08\00\00\00\00\00\00\00", i8* bitcast (i32 (i64**)* @"_ZN4core3ops8function6FnOnce40call_once$u7b$$u7b$vtable.shim$u7d$$u7d$17h1fe326bc57d2a24aE" to i8*), i8* bitcast (i32 (i64**)* @"_ZN3std2rt10lang_start28_$u7b$$u7b$closure$u7d$$u7d$17h67dd34a7a2efaa1bE" to i8*), i8* bitcast (i32 (i64**)* @"_ZN3std2rt10lang_start28_$u7b$$u7b$closure$u7d$$u7d$17h67dd34a7a2efaa1bE" to i8*), [0 x i8] zeroinitializer }>, align 8
@alloc29 = private unnamed_addr constant <{ [75 x i8] }> <{ [75 x i8] c"/rustc/2f07ae408fce782bf1058e3de808f1b6f9ab60a4/library/core/src/ptr/mod.rs" }>, align 1
@alloc30 = private unnamed_addr constant <{ i8*, [16 x i8] }> <{ i8* getelementptr inbounds (<{ [75 x i8] }>, <{ [75 x i8] }>* @alloc29, i32 0, i32 0, i32 0), [16 x i8] c"K\00\00\00\00\00\00\00\B9\02\00\00\0D\00\00\00" }>, align 8
@alloc35 = private unnamed_addr constant <{ [6 x i8] }> <{ [6 x i8] c"for.rs" }>, align 1
@alloc32 = private unnamed_addr constant <{ i8*, [16 x i8] }> <{ i8* getelementptr inbounds (<{ [6 x i8] }>, <{ [6 x i8] }>* @alloc35, i32 0, i32 0, i32 0), [16 x i8] c"\06\00\00\00\00\00\00\00\04\00\00\00\16\00\00\00" }>, align 8
@alloc34 = private unnamed_addr constant <{ i8*, [16 x i8] }> <{ i8* getelementptr inbounds (<{ [6 x i8] }>, <{ [6 x i8] }>* @alloc35, i32 0, i32 0, i32 0), [16 x i8] c"\06\00\00\00\00\00\00\00\05\00\00\00\1A\00\00\00" }>, align 8
@str.1 = internal constant [33 x i8] c"attempt to multiply with overflow"
@alloc36 = private unnamed_addr constant <{ i8*, [16 x i8] }> <{ i8* getelementptr inbounds (<{ [6 x i8] }>, <{ [6 x i8] }>* @alloc35, i32 0, i32 0, i32 0), [16 x i8] c"\06\00\00\00\00\00\00\00\05\00\00\00\09\00\00\00" }>, align 8

; std::sys_common::backtrace::__rust_begin_short_backtrace
; Function Attrs: noinline nonlazybind uwtable
define internal void @_ZN3std10sys_common9backtrace28__rust_begin_short_backtrace17h84f14cf54e90cf1cE(void ()* nonnull %f) unnamed_addr #0 personality i32 (i32, i32, i64, %"unwind::libunwind::_Unwind_Exception"*, %"unwind::libunwind::_Unwind_Context"*)* @rust_eh_personality {
start:
  %0 = alloca { i8*, i32 }, align 8
; call core::ops::function::FnOnce::call_once
  call void @_ZN4core3ops8function6FnOnce9call_once17hac9c9b133f4c5763E(void ()* nonnull %f)
  br label %bb1

bb1:                                              ; preds = %start
; invoke core::hint::black_box
  invoke void @_ZN4core4hint9black_box17h1edacf82b6e13c45E()
          to label %bb2 unwind label %cleanup

bb2:                                              ; preds = %bb1
  ret void

bb3:                                              ; preds = %cleanup
  br label %bb4

cleanup:                                          ; preds = %bb1
  %1 = landingpad { i8*, i32 }
          cleanup
  %2 = extractvalue { i8*, i32 } %1, 0
  %3 = extractvalue { i8*, i32 } %1, 1
  %4 = getelementptr inbounds { i8*, i32 }, { i8*, i32 }* %0, i32 0, i32 0
  store i8* %2, i8** %4, align 8
  %5 = getelementptr inbounds { i8*, i32 }, { i8*, i32 }* %0, i32 0, i32 1
  store i32 %3, i32* %5, align 8
  br label %bb3

bb4:                                              ; preds = %bb3
  %6 = bitcast { i8*, i32 }* %0 to i8**
  %7 = load i8*, i8** %6, align 8
  %8 = getelementptr inbounds { i8*, i32 }, { i8*, i32 }* %0, i32 0, i32 1
  %9 = load i32, i32* %8, align 8
  %10 = insertvalue { i8*, i32 } undef, i8* %7, 0
  %11 = insertvalue { i8*, i32 } %10, i32 %9, 1
  resume { i8*, i32 } %11
}

; std::rt::lang_start
; Function Attrs: nonlazybind uwtable
define hidden i64 @_ZN3std2rt10lang_start17h3fcbc37a0bcc7800E(void ()* nonnull %main, i64 %argc, i8** %argv) unnamed_addr #1 {
start:
  %_8 = alloca i64*, align 8
  %0 = bitcast i64** %_8 to void ()**
  store void ()* %main, void ()** %0, align 8
  %_5.0 = bitcast i64** %_8 to {}*
; call std::rt::lang_start_internal
  %_4 = call i64 @_ZN3std2rt19lang_start_internal17h34974808eca4303fE({}* nonnull align 1 %_5.0, [3 x i64]* align 8 dereferenceable(24) bitcast (<{ i8*, [16 x i8], i8*, i8*, i8*, [0 x i8] }>* @vtable.0 to [3 x i64]*), i64 %argc, i8** %argv)
  br label %bb1

bb1:                                              ; preds = %start
; call core::result::Result<T,E>::into_ok
  %1 = call i64 @"_ZN4core6result19Result$LT$T$C$E$GT$7into_ok17h484c6d23dd9cbeb0E"(i64 %_4)
  br label %bb2

bb2:                                              ; preds = %bb1
  ret i64 %1
}

; std::rt::lang_start::{{closure}}
; Function Attrs: inlinehint nonlazybind uwtable
define internal i32 @"_ZN3std2rt10lang_start28_$u7b$$u7b$closure$u7d$$u7d$17h67dd34a7a2efaa1bE"(i64** align 8 dereferenceable(8) %_1) unnamed_addr #2 {
start:
  %0 = bitcast i64** %_1 to void ()**
  %_3 = load void ()*, void ()** %0, align 8, !nonnull !3
; call std::sys_common::backtrace::__rust_begin_short_backtrace
  call void @_ZN3std10sys_common9backtrace28__rust_begin_short_backtrace17h84f14cf54e90cf1cE(void ()* nonnull %_3)
  br label %bb1

bb1:                                              ; preds = %start
; call <() as std::process::Termination>::report
  %1 = call i32 @"_ZN54_$LT$$LP$$RP$$u20$as$u20$std..process..Termination$GT$6report17h1c4cceef6897609cE"()
  br label %bb2

bb2:                                              ; preds = %bb1
  ret i32 %1
}

; std::sys::unix::process::process_common::ExitCode::as_i32
; Function Attrs: inlinehint nonlazybind uwtable
define internal i32 @_ZN3std3sys4unix7process14process_common8ExitCode6as_i3217hdbd328da1f2f9ad9E(i8* align 1 dereferenceable(1) %self) unnamed_addr #2 {
start:
  %_2 = load i8, i8* %self, align 1
  %0 = zext i8 %_2 to i32
  ret i32 %0
}

; <usize as core::iter::range::Step>::forward_unchecked
; Function Attrs: inlinehint nonlazybind uwtable
define internal i64 @"_ZN49_$LT$usize$u20$as$u20$core..iter..range..Step$GT$17forward_unchecked17h8d959da5e68af694E"(i64 %start1, i64 %n) unnamed_addr #2 {
start:
  %0 = alloca i64, align 8
  %1 = add nuw i64 %start1, %n
  store i64 %1, i64* %0, align 8
  %2 = load i64, i64* %0, align 8
  br label %bb1

bb1:                                              ; preds = %start
  ret i64 %2
}

; core::intrinsics::copy_nonoverlapping
; Function Attrs: inlinehint nonlazybind uwtable
define internal void @_ZN4core10intrinsics19copy_nonoverlapping17hd1dc2b622a5178dfE(i64* %src, i64* %dst, i64 %count) unnamed_addr #2 {
start:
  %0 = mul i64 %count, 8
  %1 = bitcast i64* %dst to i8*
  %2 = bitcast i64* %src to i8*
  call void @llvm.memcpy.p0i8.p0i8.i64(i8* align 8 %1, i8* align 8 %2, i64 %0, i1 false)
  ret void
}

; core::cmp::impls::<impl core::cmp::PartialOrd for usize>::lt
; Function Attrs: inlinehint nonlazybind uwtable
define internal zeroext i1 @"_ZN4core3cmp5impls57_$LT$impl$u20$core..cmp..PartialOrd$u20$for$u20$usize$GT$2lt17hc97467fc5e24bdb4E"(i64* align 8 dereferenceable(8) %self, i64* align 8 dereferenceable(8) %other) unnamed_addr #2 {
start:
  %_3 = load i64, i64* %self, align 8
  %_4 = load i64, i64* %other, align 8
  %0 = icmp ult i64 %_3, %_4
  ret i1 %0
}

; core::mem::replace
; Function Attrs: inlinehint nonlazybind uwtable
define internal i64 @_ZN4core3mem7replace17ha97172faea50c625E(i64* align 8 dereferenceable(8) %dest, i64 %src) unnamed_addr #2 personality i32 (i32, i32, i64, %"unwind::libunwind::_Unwind_Exception"*, %"unwind::libunwind::_Unwind_Context"*)* @rust_eh_personality {
start:
  %0 = alloca { i8*, i32 }, align 8
  %_7 = alloca i8, align 1
  store i8 0, i8* %_7, align 1
  store i8 1, i8* %_7, align 1
; invoke core::ptr::read
  %result = invoke i64 @_ZN4core3ptr4read17ha973abec909ffe72E(i64* %dest)
          to label %bb1 unwind label %cleanup

bb1:                                              ; preds = %start
  store i8 0, i8* %_7, align 1
; invoke core::ptr::write
  invoke void @_ZN4core3ptr5write17h1491f9cd23a2c144E(i64* %dest, i64 %src)
          to label %bb2 unwind label %cleanup1

bb6:                                              ; preds = %bb3, %cleanup
  %1 = load i8, i8* %_7, align 1, !range !4
  %2 = trunc i8 %1 to i1
  br i1 %2, label %bb5, label %bb4

cleanup:                                          ; preds = %start
  %3 = landingpad { i8*, i32 }
          cleanup
  %4 = extractvalue { i8*, i32 } %3, 0
  %5 = extractvalue { i8*, i32 } %3, 1
  %6 = getelementptr inbounds { i8*, i32 }, { i8*, i32 }* %0, i32 0, i32 0
  store i8* %4, i8** %6, align 8
  %7 = getelementptr inbounds { i8*, i32 }, { i8*, i32 }* %0, i32 0, i32 1
  store i32 %5, i32* %7, align 8
  br label %bb6

bb2:                                              ; preds = %bb1
  ret i64 %result

bb3:                                              ; preds = %cleanup1
  br label %bb6

cleanup1:                                         ; preds = %bb1
  %8 = landingpad { i8*, i32 }
          cleanup
  %9 = extractvalue { i8*, i32 } %8, 0
  %10 = extractvalue { i8*, i32 } %8, 1
  %11 = getelementptr inbounds { i8*, i32 }, { i8*, i32 }* %0, i32 0, i32 0
  store i8* %9, i8** %11, align 8
  %12 = getelementptr inbounds { i8*, i32 }, { i8*, i32 }* %0, i32 0, i32 1
  store i32 %10, i32* %12, align 8
  br label %bb3

bb4:                                              ; preds = %bb5, %bb6
  %13 = bitcast { i8*, i32 }* %0 to i8**
  %14 = load i8*, i8** %13, align 8
  %15 = getelementptr inbounds { i8*, i32 }, { i8*, i32 }* %0, i32 0, i32 1
  %16 = load i32, i32* %15, align 8
  %17 = insertvalue { i8*, i32 } undef, i8* %14, 0
  %18 = insertvalue { i8*, i32 } %17, i32 %16, 1
  resume { i8*, i32 } %18

bb5:                                              ; preds = %bb6
  br label %bb4
}

; core::ops::function::FnOnce::call_once{{vtable.shim}}
; Function Attrs: inlinehint nonlazybind uwtable
define internal i32 @"_ZN4core3ops8function6FnOnce40call_once$u7b$$u7b$vtable.shim$u7d$$u7d$17h1fe326bc57d2a24aE"(i64** %_1) unnamed_addr #2 {
start:
  %_2 = alloca {}, align 1
  %0 = load i64*, i64** %_1, align 8, !nonnull !3
; call core::ops::function::FnOnce::call_once
  %1 = call i32 @_ZN4core3ops8function6FnOnce9call_once17hdde2b65ea4fe7ce6E(i64* nonnull %0)
  br label %bb1

bb1:                                              ; preds = %start
  ret i32 %1
}

; core::ops::function::FnOnce::call_once
; Function Attrs: inlinehint nonlazybind uwtable
define internal void @_ZN4core3ops8function6FnOnce9call_once17hac9c9b133f4c5763E(void ()* nonnull %_1) unnamed_addr #2 {
start:
  %_2 = alloca {}, align 1
  call void %_1()
  br label %bb1

bb1:                                              ; preds = %start
  ret void
}

; core::ops::function::FnOnce::call_once
; Function Attrs: inlinehint nonlazybind uwtable
define internal i32 @_ZN4core3ops8function6FnOnce9call_once17hdde2b65ea4fe7ce6E(i64* nonnull %0) unnamed_addr #2 personality i32 (i32, i32, i64, %"unwind::libunwind::_Unwind_Exception"*, %"unwind::libunwind::_Unwind_Context"*)* @rust_eh_personality {
start:
  %1 = alloca { i8*, i32 }, align 8
  %_2 = alloca {}, align 1
  %_1 = alloca i64*, align 8
  store i64* %0, i64** %_1, align 8
; invoke std::rt::lang_start::{{closure}}
  %2 = invoke i32 @"_ZN3std2rt10lang_start28_$u7b$$u7b$closure$u7d$$u7d$17h67dd34a7a2efaa1bE"(i64** align 8 dereferenceable(8) %_1)
          to label %bb1 unwind label %cleanup

bb1:                                              ; preds = %start
  br label %bb2

bb3:                                              ; preds = %cleanup
  br label %bb4

cleanup:                                          ; preds = %start
  %3 = landingpad { i8*, i32 }
          cleanup
  %4 = extractvalue { i8*, i32 } %3, 0
  %5 = extractvalue { i8*, i32 } %3, 1
  %6 = getelementptr inbounds { i8*, i32 }, { i8*, i32 }* %1, i32 0, i32 0
  store i8* %4, i8** %6, align 8
  %7 = getelementptr inbounds { i8*, i32 }, { i8*, i32 }* %1, i32 0, i32 1
  store i32 %5, i32* %7, align 8
  br label %bb3

bb4:                                              ; preds = %bb3
  %8 = bitcast { i8*, i32 }* %1 to i8**
  %9 = load i8*, i8** %8, align 8
  %10 = getelementptr inbounds { i8*, i32 }, { i8*, i32 }* %1, i32 0, i32 1
  %11 = load i32, i32* %10, align 8
  %12 = insertvalue { i8*, i32 } undef, i8* %9, 0
  %13 = insertvalue { i8*, i32 } %12, i32 %11, 1
  resume { i8*, i32 } %13

bb2:                                              ; preds = %bb1
  ret i32 %2
}

; core::ptr::read
; Function Attrs: inlinehint nonlazybind uwtable
define internal i64 @_ZN4core3ptr4read17ha973abec909ffe72E(i64* %src) unnamed_addr #2 {
start:
  %0 = alloca i64, align 8
  %tmp = alloca i64, align 8
  %1 = bitcast i64* %0 to {}*
  %2 = load i64, i64* %0, align 8
  store i64 %2, i64* %tmp, align 8
  br label %bb1

bb1:                                              ; preds = %start
  br label %bb2

bb2:                                              ; preds = %bb1
; call core::intrinsics::copy_nonoverlapping
  call void @_ZN4core10intrinsics19copy_nonoverlapping17hd1dc2b622a5178dfE(i64* %src, i64* %tmp, i64 1)
  br label %bb3

bb3:                                              ; preds = %bb2
  %_7 = load i64, i64* %tmp, align 8
  br label %bb4

bb4:                                              ; preds = %bb3
  ret i64 %_7
}

; core::ptr::write
; Function Attrs: inlinehint nonlazybind uwtable
define internal void @_ZN4core3ptr5write17h1491f9cd23a2c144E(i64* %dst, i64 %0) unnamed_addr #2 {
start:
  %src = alloca i64, align 8
  store i64 %0, i64* %src, align 8
  %1 = bitcast i64* %dst to i8*
  %2 = bitcast i64* %src to i8*
  call void @llvm.memcpy.p0i8.p0i8.i64(i8* align 8 %1, i8* align 8 %2, i64 8, i1 false)
  ret void
}

; core::ptr::drop_in_place<std::rt::lang_start<()>::{{closure}}>
; Function Attrs: inlinehint nonlazybind uwtable
define internal void @"_ZN4core3ptr85drop_in_place$LT$std..rt..lang_start$LT$$LP$$RP$$GT$..$u7b$$u7b$closure$u7d$$u7d$$GT$17hf8c1492530bb5af0E"(i64** %_1) unnamed_addr #2 {
start:
  ret void
}

; core::hint::black_box
; Function Attrs: inlinehint nonlazybind uwtable
define internal void @_ZN4core4hint9black_box17h1edacf82b6e13c45E() unnamed_addr #2 {
start:
  %dummy = alloca {}, align 1
  call void asm sideeffect "", "r,~{memory},~{dirflag},~{fpsr},~{flags}"({}* %dummy), !srcloc !5
  ret void
}

; core::iter::range::<impl core::iter::traits::iterator::Iterator for core::ops::range::Range<A>>::next
; Function Attrs: inlinehint nonlazybind uwtable
define internal { i64, i64 } @"_ZN4core4iter5range101_$LT$impl$u20$core..iter..traits..iterator..Iterator$u20$for$u20$core..ops..range..Range$LT$A$GT$$GT$4next17hbb50efb4aea1a230E"({ i64, i64 }* align 8 dereferenceable(16) %self) unnamed_addr #2 {
start:
; call <core::ops::range::Range<T> as core::iter::range::RangeIteratorImpl>::spec_next
  %0 = call { i64, i64 } @"_ZN89_$LT$core..ops..range..Range$LT$T$GT$$u20$as$u20$core..iter..range..RangeIteratorImpl$GT$9spec_next17h71fb0cf43a79bdf2E"({ i64, i64 }* align 8 dereferenceable(16) %self)
  %1 = extractvalue { i64, i64 } %0, 0
  %2 = extractvalue { i64, i64 } %0, 1
  br label %bb1

bb1:                                              ; preds = %start
  %3 = insertvalue { i64, i64 } undef, i64 %1, 0
  %4 = insertvalue { i64, i64 } %3, i64 %2, 1
  ret { i64, i64 } %4
}

; core::clone::impls::<impl core::clone::Clone for usize>::clone
; Function Attrs: inlinehint nonlazybind uwtable
define internal i64 @"_ZN4core5clone5impls54_$LT$impl$u20$core..clone..Clone$u20$for$u20$usize$GT$5clone17hd0f801bd34a56472E"(i64* align 8 dereferenceable(8) %self) unnamed_addr #2 {
start:
  %0 = load i64, i64* %self, align 8
  ret i64 %0
}

; core::result::Result<T,E>::into_ok
; Function Attrs: inlinehint nonlazybind uwtable
define internal i64 @"_ZN4core6result19Result$LT$T$C$E$GT$7into_ok17h484c6d23dd9cbeb0E"(i64 %0) unnamed_addr #2 {
start:
  %self = alloca i64, align 8
  store i64 %0, i64* %self, align 8
  switch i64 0, label %bb2 [
    i64 0, label %bb3
    i64 1, label %bb1
  ]

bb2:                                              ; preds = %start
  unreachable

bb3:                                              ; preds = %start
  %x = load i64, i64* %self, align 8
  ret i64 %x

bb1:                                              ; preds = %start
; call <T as core::convert::Into<U>>::into
  call void @"_ZN50_$LT$T$u20$as$u20$core..convert..Into$LT$U$GT$$GT$4into17h69fcd8166eea32faE"()
  unreachable
}

; <T as core::convert::From<T>>::from
; Function Attrs: noreturn nonlazybind uwtable
define internal void @"_ZN50_$LT$T$u20$as$u20$core..convert..From$LT$T$GT$$GT$4from17hc9423551e3bbbf8cE"() unnamed_addr #3 {
start:
  call void @llvm.trap()
  unreachable
}

; <T as core::convert::Into<U>>::into
; Function Attrs: noreturn nonlazybind uwtable
define internal void @"_ZN50_$LT$T$u20$as$u20$core..convert..Into$LT$U$GT$$GT$4into17h69fcd8166eea32faE"() unnamed_addr #3 {
start:
; call <T as core::convert::From<T>>::from
  call void @"_ZN50_$LT$T$u20$as$u20$core..convert..From$LT$T$GT$$GT$4from17hc9423551e3bbbf8cE"()
  br label %bb1

bb1:                                              ; preds = %start
  call void @llvm.trap()
  unreachable
}

; <() as std::process::Termination>::report
; Function Attrs: inlinehint nonlazybind uwtable
define internal i32 @"_ZN54_$LT$$LP$$RP$$u20$as$u20$std..process..Termination$GT$6report17h1c4cceef6897609cE"() unnamed_addr #2 {
start:
; call <std::process::ExitCode as std::process::Termination>::report
  %0 = call i32 @"_ZN68_$LT$std..process..ExitCode$u20$as$u20$std..process..Termination$GT$6report17h906460706f07ba70E"(i8 0)
  br label %bb1

bb1:                                              ; preds = %start
  ret i32 %0
}

; <I as core::iter::traits::collect::IntoIterator>::into_iter
; Function Attrs: inlinehint nonlazybind uwtable
define internal { i64, i64 } @"_ZN63_$LT$I$u20$as$u20$core..iter..traits..collect..IntoIterator$GT$9into_iter17hb5afb5315b8e6c12E"(i64 %self.0, i64 %self.1) unnamed_addr #2 {
start:
  %0 = insertvalue { i64, i64 } undef, i64 %self.0, 0
  %1 = insertvalue { i64, i64 } %0, i64 %self.1, 1
  ret { i64, i64 } %1
}

; <std::process::ExitCode as std::process::Termination>::report
; Function Attrs: inlinehint nonlazybind uwtable
define internal i32 @"_ZN68_$LT$std..process..ExitCode$u20$as$u20$std..process..Termination$GT$6report17h906460706f07ba70E"(i8 %0) unnamed_addr #2 {
start:
  %self = alloca i8, align 1
  store i8 %0, i8* %self, align 1
; call std::sys::unix::process::process_common::ExitCode::as_i32
  %1 = call i32 @_ZN3std3sys4unix7process14process_common8ExitCode6as_i3217hdbd328da1f2f9ad9E(i8* align 1 dereferenceable(1) %self)
  br label %bb1

bb1:                                              ; preds = %start
  ret i32 %1
}

; <core::ops::range::Range<T> as core::iter::range::RangeIteratorImpl>::spec_next
; Function Attrs: inlinehint nonlazybind uwtable
define internal { i64, i64 } @"_ZN89_$LT$core..ops..range..Range$LT$T$GT$$u20$as$u20$core..iter..range..RangeIteratorImpl$GT$9spec_next17h71fb0cf43a79bdf2E"({ i64, i64 }* align 8 dereferenceable(16) %self) unnamed_addr #2 {
start:
  %0 = alloca { i64, i64 }, align 8
  %_3 = bitcast { i64, i64 }* %self to i64*
  %_4 = getelementptr inbounds { i64, i64 }, { i64, i64 }* %self, i32 0, i32 1
; call core::cmp::impls::<impl core::cmp::PartialOrd for usize>::lt
  %_2 = call zeroext i1 @"_ZN4core3cmp5impls57_$LT$impl$u20$core..cmp..PartialOrd$u20$for$u20$usize$GT$2lt17hc97467fc5e24bdb4E"(i64* align 8 dereferenceable(8) %_3, i64* align 8 dereferenceable(8) %_4)
  br label %bb1

bb1:                                              ; preds = %start
  br i1 %_2, label %bb2, label %bb3

bb3:                                              ; preds = %bb1
  %1 = bitcast { i64, i64 }* %0 to i64*
  store i64 0, i64* %1, align 8
  br label %bb7

bb2:                                              ; preds = %bb1
  %_7 = bitcast { i64, i64 }* %self to i64*
; call core::clone::impls::<impl core::clone::Clone for usize>::clone
  %_6 = call i64 @"_ZN4core5clone5impls54_$LT$impl$u20$core..clone..Clone$u20$for$u20$usize$GT$5clone17hd0f801bd34a56472E"(i64* align 8 dereferenceable(8) %_7)
  br label %bb4

bb4:                                              ; preds = %bb2
; call <usize as core::iter::range::Step>::forward_unchecked
  %n = call i64 @"_ZN49_$LT$usize$u20$as$u20$core..iter..range..Step$GT$17forward_unchecked17h8d959da5e68af694E"(i64 %_6, i64 1)
  br label %bb5

bb5:                                              ; preds = %bb4
  %_10 = bitcast { i64, i64 }* %self to i64*
; call core::mem::replace
  %_8 = call i64 @_ZN4core3mem7replace17ha97172faea50c625E(i64* align 8 dereferenceable(8) %_10, i64 %n)
  br label %bb6

bb6:                                              ; preds = %bb5
  %2 = bitcast { i64, i64 }* %0 to %"std::option::Option<usize>::Some"*
  %3 = getelementptr inbounds %"std::option::Option<usize>::Some", %"std::option::Option<usize>::Some"* %2, i32 0, i32 1
  store i64 %_8, i64* %3, align 8
  %4 = bitcast { i64, i64 }* %0 to i64*
  store i64 1, i64* %4, align 8
  br label %bb7

bb7:                                              ; preds = %bb3, %bb6
  %5 = getelementptr inbounds { i64, i64 }, { i64, i64 }* %0, i32 0, i32 0
  %6 = load i64, i64* %5, align 8, !range !6
  %7 = getelementptr inbounds { i64, i64 }, { i64, i64 }* %0, i32 0, i32 1
  %8 = load i64, i64* %7, align 8
  %9 = insertvalue { i64, i64 } undef, i64 %6, 0
  %10 = insertvalue { i64, i64 } %9, i64 %8, 1
  ret { i64, i64 } %10
}

; for::main
; Function Attrs: nonlazybind uwtable
define internal void @_ZN3for4main17h1205f440fdef4a4dE() unnamed_addr #1 {
start:
  %_9 = alloca { i64, i64 }, align 8
  %iter = alloca { i64, i64 }, align 8
  %_3 = alloca { i64, i64 }, align 8
  %numbers = alloca [3 x i32], align 4
  %0 = bitcast [3 x i32]* %numbers to i32*
  store i32 1, i32* %0, align 4
  %1 = getelementptr inbounds [3 x i32], [3 x i32]* %numbers, i32 0, i32 1
  store i32 2, i32* %1, align 4
  %2 = getelementptr inbounds [3 x i32], [3 x i32]* %numbers, i32 0, i32 2
  store i32 3, i32* %2, align 4
  %_5.0 = bitcast [3 x i32]* %numbers to [0 x i32]*
  %3 = bitcast { i64, i64 }* %_3 to i64*
  store i64 0, i64* %3, align 8
  %4 = getelementptr inbounds { i64, i64 }, { i64, i64 }* %_3, i32 0, i32 1
  store i64 3, i64* %4, align 8
  %5 = getelementptr inbounds { i64, i64 }, { i64, i64 }* %_3, i32 0, i32 0
  %6 = load i64, i64* %5, align 8
  %7 = getelementptr inbounds { i64, i64 }, { i64, i64 }* %_3, i32 0, i32 1
  %8 = load i64, i64* %7, align 8
; call <I as core::iter::traits::collect::IntoIterator>::into_iter
  %9 = call { i64, i64 } @"_ZN63_$LT$I$u20$as$u20$core..iter..traits..collect..IntoIterator$GT$9into_iter17hb5afb5315b8e6c12E"(i64 %6, i64 %8)
  %_2.0 = extractvalue { i64, i64 } %9, 0
  %_2.1 = extractvalue { i64, i64 } %9, 1
  br label %bb1

bb1:                                              ; preds = %start
  %10 = getelementptr inbounds { i64, i64 }, { i64, i64 }* %iter, i32 0, i32 0
  store i64 %_2.0, i64* %10, align 8
  %11 = getelementptr inbounds { i64, i64 }, { i64, i64 }* %iter, i32 0, i32 1
  store i64 %_2.1, i64* %11, align 8
  br label %bb2

bb2:                                              ; preds = %bb9, %bb1
; call core::iter::range::<impl core::iter::traits::iterator::Iterator for core::ops::range::Range<A>>::next
  %12 = call { i64, i64 } @"_ZN4core4iter5range101_$LT$impl$u20$core..iter..traits..iterator..Iterator$u20$for$u20$core..ops..range..Range$LT$A$GT$$GT$4next17hbb50efb4aea1a230E"({ i64, i64 }* align 8 dereferenceable(16) %iter)
  store { i64, i64 } %12, { i64, i64 }* %_9, align 8
  br label %bb3

bb3:                                              ; preds = %bb2
  %13 = bitcast { i64, i64 }* %_9 to i64*
  %_12 = load i64, i64* %13, align 8, !range !6
  switch i64 %_12, label %bb5 [
    i64 0, label %bb4
    i64 1, label %bb6
  ]

bb5:                                              ; preds = %bb3
  unreachable

bb4:                                              ; preds = %bb3
  ret void

bb6:                                              ; preds = %bb3
  %14 = bitcast { i64, i64 }* %_9 to %"std::option::Option<usize>::Some"*
  %15 = getelementptr inbounds %"std::option::Option<usize>::Some", %"std::option::Option<usize>::Some"* %14, i32 0, i32 1
  %val = load i64, i64* %15, align 8
  %_19 = icmp ult i64 %val, 3
  %16 = call i1 @llvm.expect.i1(i1 %_19, i1 true)
  br i1 %16, label %bb7, label %panic

bb7:                                              ; preds = %bb6
  %17 = getelementptr inbounds [3 x i32], [3 x i32]* %numbers, i64 0, i64 %val
  %number = load i32, i32* %17, align 4
  %18 = call { i32, i1 } @llvm.smul.with.overflow.i32(i32 %number, i32 2)
  %_21.0 = extractvalue { i32, i1 } %18, 0
  %_21.1 = extractvalue { i32, i1 } %18, 1
  %19 = call i1 @llvm.expect.i1(i1 %_21.1, i1 false)
  br i1 %19, label %panic1, label %bb8

panic:                                            ; preds = %bb6
; call core::panicking::panic_bounds_check
  call void @_ZN4core9panicking18panic_bounds_check17hc3a71010bf41c72dE(i64 %val, i64 3, %"std::panic::Location"* align 8 dereferenceable(24) bitcast (<{ i8*, [16 x i8] }>* @alloc32 to %"std::panic::Location"*))
  unreachable

bb8:                                              ; preds = %bb7
  %_24 = icmp ult i64 %val, 3
  %20 = call i1 @llvm.expect.i1(i1 %_24, i1 true)
  br i1 %20, label %bb9, label %panic2

panic1:                                           ; preds = %bb7
; call core::panicking::panic
  call void @_ZN4core9panicking5panic17hd695e3b1d0dd4ef4E([0 x i8]* nonnull align 1 bitcast ([33 x i8]* @str.1 to [0 x i8]*), i64 33, %"std::panic::Location"* align 8 dereferenceable(24) bitcast (<{ i8*, [16 x i8] }>* @alloc34 to %"std::panic::Location"*))
  unreachable

bb9:                                              ; preds = %bb8
  %21 = getelementptr inbounds [3 x i32], [3 x i32]* %numbers, i64 0, i64 %val
  store i32 %_21.0, i32* %21, align 4
  br label %bb2

panic2:                                           ; preds = %bb8
; call core::panicking::panic_bounds_check
  call void @_ZN4core9panicking18panic_bounds_check17hc3a71010bf41c72dE(i64 %val, i64 3, %"std::panic::Location"* align 8 dereferenceable(24) bitcast (<{ i8*, [16 x i8] }>* @alloc36 to %"std::panic::Location"*))
  unreachable
}

; Function Attrs: nonlazybind uwtable
declare i32 @rust_eh_personality(i32, i32, i64, %"unwind::libunwind::_Unwind_Exception"*, %"unwind::libunwind::_Unwind_Context"*) unnamed_addr #1

; std::rt::lang_start_internal
; Function Attrs: nonlazybind uwtable
declare i64 @_ZN3std2rt19lang_start_internal17h34974808eca4303fE({}* nonnull align 1, [3 x i64]* align 8 dereferenceable(24), i64, i8**) unnamed_addr #1

; Function Attrs: argmemonly nofree nosync nounwind willreturn
declare void @llvm.memcpy.p0i8.p0i8.i64(i8* noalias nocapture writeonly, i8* noalias nocapture readonly, i64, i1 immarg) #4

; Function Attrs: cold noreturn nounwind
declare void @llvm.trap() #5

; Function Attrs: nofree nosync nounwind readnone willreturn
declare i1 @llvm.expect.i1(i1, i1) #6

; core::panicking::panic_bounds_check
; Function Attrs: cold noinline noreturn nonlazybind uwtable
declare void @_ZN4core9panicking18panic_bounds_check17hc3a71010bf41c72dE(i64, i64, %"std::panic::Location"* align 8 dereferenceable(24)) unnamed_addr #7

; Function Attrs: nofree nosync nounwind readnone speculatable willreturn
declare { i32, i1 } @llvm.smul.with.overflow.i32(i32, i32) #8

; core::panicking::panic
; Function Attrs: cold noinline noreturn nonlazybind uwtable
declare void @_ZN4core9panicking5panic17hd695e3b1d0dd4ef4E([0 x i8]* nonnull align 1, i64, %"std::panic::Location"* align 8 dereferenceable(24)) unnamed_addr #7

; Function Attrs: nonlazybind
define i32 @main(i32 %0, i8** %1) unnamed_addr #9 {
top:
  %2 = sext i32 %0 to i64
; call std::rt::lang_start
  %3 = call i64 @_ZN3std2rt10lang_start17h3fcbc37a0bcc7800E(void ()* @_ZN3for4main17h1205f440fdef4a4dE, i64 %2, i8** %1)
  %4 = trunc i64 %3 to i32
  ret i32 %4
}

attributes #0 = { noinline nonlazybind uwtable "probe-stack"="__rust_probestack" "target-cpu"="x86-64" }
attributes #1 = { nonlazybind uwtable "probe-stack"="__rust_probestack" "target-cpu"="x86-64" }
attributes #2 = { inlinehint nonlazybind uwtable "probe-stack"="__rust_probestack" "target-cpu"="x86-64" }
attributes #3 = { noreturn nonlazybind uwtable "probe-stack"="__rust_probestack" "target-cpu"="x86-64" }
attributes #4 = { argmemonly nofree nosync nounwind willreturn }
attributes #5 = { cold noreturn nounwind }
attributes #6 = { nofree nosync nounwind readnone willreturn }
attributes #7 = { cold noinline noreturn nonlazybind uwtable "probe-stack"="__rust_probestack" "target-cpu"="x86-64" }
attributes #8 = { nofree nosync nounwind readnone speculatable willreturn }
attributes #9 = { nonlazybind "target-cpu"="x86-64" }

!llvm.module.flags = !{!0, !1, !2}

!0 = !{i32 7, !"PIC Level", i32 2}
!1 = !{i32 7, !"PIE Level", i32 2}
!2 = !{i32 2, !"RtLibUseGOT", i32 1}
!3 = !{}
!4 = !{i8 0, i8 2}
!5 = !{i32 2983062}
!6 = !{i64 0, i64 2}
